target datalayout = "e-m:e-p270:32:32-p271:32:32-p272:64:64-i64:64-i128:128-f80:128-n8:16:32:64-S128"
target triple = "x86_64-pc-linux-gnu"

%struct.dlist_node = type { ptr, ptr }
%struct.ResourceOwnerDesc = type { ptr, i32, i32, ptr, ptr }
%struct.dsm_control_header = type { i32, i32, i32, [0 x %struct.dsm_control_item] }
%struct.dsm_control_item = type { i32, i32, i64, i64, ptr, i8 }
%union.LWLockPadded = type { %struct.LWLock, [112 x i8] }
%struct.LWLock = type { i16, %struct.pg_atomic_uint32, %struct.proclist_head }
%struct.pg_atomic_uint32 = type { i32 }
%struct.proclist_head = type { i32, i32 }
%struct.dsm_segment = type { %struct.dlist_node, ptr, i32, i32, ptr, ptr, i64, %struct.slist_head }
%struct.slist_head = type { %struct.slist_node }
%struct.slist_node = type { ptr }
%struct.dsm_segment_detach_callback = type { ptr, i64, %struct.slist_node }

@dsm_control = internal global ptr null, align 8
@dsm_main_space_begin = internal global ptr null, align 8
@MainLWLockArray = external global ptr, align 8
@InterruptHoldoffCount = external global i32, align 4
@dsm_resowner_desc = internal constant %struct.ResourceOwnerDesc { ptr @.str.18, i32 1, i32 400, ptr @ResOwnerReleaseDSM, ptr @ResOwnerPrintDSM }, align 8

; Function Attrs: inlinehint nounwind uwtable
define internal i64 @PointerGetDatum(ptr noundef %0) #4 {
  %2 = alloca ptr, align 8
  store ptr %0, ptr %2, align 8
  %3 = load ptr, ptr %2, align 8
  %4 = ptrtoint ptr %3 to i64
  ret i64 %4
}

; Function Attrs: inlinehint nounwind uwtable
define internal void @dlist_delete(ptr noundef %0) #4 {
  %2 = alloca ptr, align 8
  store ptr %0, ptr %2, align 8
  %3 = load ptr, ptr %2, align 8
  %4 = getelementptr inbounds nuw %struct.dlist_node, ptr %3, i32 0, i32 1
  %5 = load ptr, ptr %4, align 8
  %6 = load ptr, ptr %2, align 8
  %7 = getelementptr inbounds nuw %struct.dlist_node, ptr %6, i32 0, i32 0
  %8 = load ptr, ptr %7, align 8
  %9 = getelementptr inbounds nuw %struct.dlist_node, ptr %8, i32 0, i32 1
  store ptr %5, ptr %9, align 8
  %10 = load ptr, ptr %2, align 8
  %11 = getelementptr inbounds nuw %struct.dlist_node, ptr %10, i32 0, i32 0
  %12 = load ptr, ptr %11, align 8
  %13 = load ptr, ptr %2, align 8
  %14 = getelementptr inbounds nuw %struct.dlist_node, ptr %13, i32 0, i32 1
  %15 = load ptr, ptr %14, align 8
  %16 = getelementptr inbounds nuw %struct.dlist_node, ptr %15, i32 0, i32 0
  store ptr %12, ptr %16, align 8
  ret void
}

; Function Attrs: inlinehint nounwind uwtable
define internal void @ResourceOwnerForgetDSM(ptr noundef %0, ptr noundef %1) #4 {
  %3 = alloca ptr, align 8
  %4 = alloca ptr, align 8
  store ptr %0, ptr %3, align 8
  store ptr %1, ptr %4, align 8
  %5 = load ptr, ptr %3, align 8
  %6 = load ptr, ptr %4, align 8
  %7 = call i64 @PointerGetDatum(ptr noundef %6)
  call void @ResourceOwnerForget(ptr noundef %5, i64 noundef %7, ptr noundef @dsm_resowner_desc)
  ret void
}

; Function Attrs: inlinehint nounwind uwtable
define internal zeroext i1 @is_main_region_dsm_handle(i32 noundef %0) #4 {
  %2 = alloca i32, align 4
  store i32 %0, ptr %2, align 4
  %3 = load i32, ptr %2, align 4
  %4 = and i32 %3, 1
  %5 = icmp ne i32 %4, 0
  ret i1 %5
}

; Function Attrs: inlinehint nounwind uwtable
define internal ptr @slist_pop_head_node(ptr noundef %0) #4 {
  %2 = alloca ptr, align 8
  %3 = alloca ptr, align 8
  store ptr %0, ptr %2, align 8
  call void @llvm.lifetime.start.p0(i64 8, ptr %3) #8
  %4 = load ptr, ptr %2, align 8
  %5 = getelementptr inbounds nuw %struct.slist_head, ptr %4, i32 0, i32 0
  %6 = getelementptr inbounds nuw %struct.slist_node, ptr %5, i32 0, i32 0
  %7 = load ptr, ptr %6, align 8
  store ptr %7, ptr %3, align 8
  %8 = load ptr, ptr %3, align 8
  %9 = getelementptr inbounds nuw %struct.slist_node, ptr %8, i32 0, i32 0
  %10 = load ptr, ptr %9, align 8
  %11 = load ptr, ptr %2, align 8
  %12 = getelementptr inbounds nuw %struct.slist_head, ptr %11, i32 0, i32 0
  %13 = getelementptr inbounds nuw %struct.slist_node, ptr %12, i32 0, i32 0
  store ptr %10, ptr %13, align 8
  %14 = load ptr, ptr %3, align 8
  call void @llvm.lifetime.end.p0(i64 8, ptr %3) #8
  ret ptr %14
}

; Function Attrs: inlinehint nounwind uwtable
define internal zeroext i1 @slist_is_empty(ptr noundef %0) #4 {
  %2 = alloca ptr, align 8
  store ptr %0, ptr %2, align 8
  %3 = load ptr, ptr %2, align 8
  %4 = getelementptr inbounds nuw %struct.slist_head, ptr %3, i32 0, i32 0
  %5 = getelementptr inbounds nuw %struct.slist_node, ptr %4, i32 0, i32 0
  %6 = load ptr, ptr %5, align 8
  %7 = icmp eq ptr %6, null
  ret i1 %7
}

; Function Attrs: nounwind uwtable
define dso_local void @dsm_detach(ptr noundef %0) #0 {
  %2 = alloca ptr, align 8
  %3 = alloca ptr, align 8
  %4 = alloca ptr, align 8
  %5 = alloca ptr, align 8
  %6 = alloca i64, align 8
  %7 = alloca i32, align 4
  %8 = alloca i32, align 4
  %9 = alloca i32, align 4
  %10 = alloca i32, align 4
  store ptr %0, ptr %2, align 8
  %11 = load volatile i32, ptr @InterruptHoldoffCount, align 4
  %12 = add i32 %11, 1
  store volatile i32 %12, ptr @InterruptHoldoffCount, align 4
  br label %13

13:                                               ; preds = %27, %1
  %14 = load ptr, ptr %2, align 8
  %15 = getelementptr inbounds nuw %struct.dsm_segment, ptr %14, i32 0, i32 7
  %16 = call zeroext i1 @slist_is_empty(ptr noundef %15)
  %17 = xor i1 %16, true
  br i1 %17, label %18, label %40

18:                                               ; preds = %13
  call void @llvm.lifetime.start.p0(i64 8, ptr %3) #8
  call void @llvm.lifetime.start.p0(i64 8, ptr %4) #8
  call void @llvm.lifetime.start.p0(i64 8, ptr %5) #8
  call void @llvm.lifetime.start.p0(i64 8, ptr %6) #8
  %19 = load ptr, ptr %2, align 8
  %20 = getelementptr inbounds nuw %struct.dsm_segment, ptr %19, i32 0, i32 7
  %21 = call ptr @slist_pop_head_node(ptr noundef %20)
  store ptr %21, ptr %3, align 8
  br label %22

22:                                               ; preds = %18
  br label %23

23:                                               ; preds = %22
  br label %24

24:                                               ; preds = %23
  store i32 1, ptr %7, align 4
  br label %25

25:                                               ; preds = %24
  br label %26

26:                                               ; preds = %25
  br label %27

27:                                               ; preds = %26
  store i32 1, ptr %8, align 4
  %28 = load ptr, ptr %3, align 8
  %29 = getelementptr inbounds i8, ptr %28, i64 -16
  store ptr %29, ptr %4, align 8
  %30 = load ptr, ptr %4, align 8
  %31 = getelementptr inbounds nuw %struct.dsm_segment_detach_callback, ptr %30, i32 0, i32 0
  %32 = load ptr, ptr %31, align 8
  store ptr %32, ptr %5, align 8
  %33 = load ptr, ptr %4, align 8
  %34 = getelementptr inbounds nuw %struct.dsm_segment_detach_callback, ptr %33, i32 0, i32 1
  %35 = load i64, ptr %34, align 8
  store i64 %35, ptr %6, align 8
  %36 = load ptr, ptr %4, align 8
  call void @pfree(ptr noundef %36)
  %37 = load ptr, ptr %5, align 8
  %38 = load ptr, ptr %2, align 8
  %39 = load i64, ptr %6, align 8
  call void %37(ptr noundef %38, i64 noundef %39)
  call void @llvm.lifetime.end.p0(i64 8, ptr %6) #8
  call void @llvm.lifetime.end.p0(i64 8, ptr %5) #8
  call void @llvm.lifetime.end.p0(i64 8, ptr %4) #8
  call void @llvm.lifetime.end.p0(i64 8, ptr %3) #8
  br label %13, !llvm.loop !14

40:                                               ; preds = %13
  br label %41

41:                                               ; preds = %40
  %42 = load volatile i32, ptr @InterruptHoldoffCount, align 4
  %43 = add i32 %42, -1
  store volatile i32 %43, ptr @InterruptHoldoffCount, align 4
  br label %44

44:                                               ; preds = %41
  %45 = load ptr, ptr %2, align 8
  %46 = getelementptr inbounds nuw %struct.dsm_segment, ptr %45, i32 0, i32 5
  %47 = load ptr, ptr %46, align 8
  %48 = icmp ne ptr %47, null
  br i1 %48, label %49, label %72

49:                                               ; preds = %44
  %50 = load ptr, ptr %2, align 8
  %51 = getelementptr inbounds nuw %struct.dsm_segment, ptr %50, i32 0, i32 2
  %52 = load i32, ptr %51, align 8
  %53 = call zeroext i1 @is_main_region_dsm_handle(i32 noundef %52)
  br i1 %53, label %65, label %54

54:                                               ; preds = %49
  %55 = load ptr, ptr %2, align 8
  %56 = getelementptr inbounds nuw %struct.dsm_segment, ptr %55, i32 0, i32 2
  %57 = load i32, ptr %56, align 8
  %58 = load ptr, ptr %2, align 8
  %59 = getelementptr inbounds nuw %struct.dsm_segment, ptr %58, i32 0, i32 4
  %60 = load ptr, ptr %2, align 8
  %61 = getelementptr inbounds nuw %struct.dsm_segment, ptr %60, i32 0, i32 5
  %62 = load ptr, ptr %2, align 8
  %63 = getelementptr inbounds nuw %struct.dsm_segment, ptr %62, i32 0, i32 6
  %64 = call zeroext i1 @dsm_impl_op(i32 noundef 2, i32 noundef %57, i64 noundef 0, ptr noundef %59, ptr noundef %61, ptr noundef %63, i32 noundef 19)
  br label %65

65:                                               ; preds = %54, %49
  %66 = load ptr, ptr %2, align 8
  %67 = getelementptr inbounds nuw %struct.dsm_segment, ptr %66, i32 0, i32 4
  store ptr null, ptr %67, align 8
  %68 = load ptr, ptr %2, align 8
  %69 = getelementptr inbounds nuw %struct.dsm_segment, ptr %68, i32 0, i32 5
  store ptr null, ptr %69, align 8
  %70 = load ptr, ptr %2, align 8
  %71 = getelementptr inbounds nuw %struct.dsm_segment, ptr %70, i32 0, i32 6
  store i64 0, ptr %71, align 8
  br label %72

72:                                               ; preds = %65, %44
  %73 = load ptr, ptr %2, align 8
  %74 = getelementptr inbounds nuw %struct.dsm_segment, ptr %73, i32 0, i32 3
  %75 = load i32, ptr %74, align 4
  %76 = icmp ne i32 %75, -1
  br i1 %76, label %77, label %149

77:                                               ; preds = %72
  call void @llvm.lifetime.start.p0(i64 4, ptr %9) #8
  call void @llvm.lifetime.start.p0(i64 4, ptr %10) #8
  %78 = load ptr, ptr %2, align 8
  %79 = getelementptr inbounds nuw %struct.dsm_segment, ptr %78, i32 0, i32 3
  %80 = load i32, ptr %79, align 4
  store i32 %80, ptr %10, align 4
  %81 = load ptr, ptr @MainLWLockArray, align 8
  %82 = getelementptr inbounds %union.LWLockPadded, ptr %81, i64 34
  %83 = call zeroext i1 @LWLockAcquire(ptr noundef %82, i32 noundef 0)
  %84 = load ptr, ptr @dsm_control, align 8
  %85 = getelementptr inbounds nuw %struct.dsm_control_header, ptr %84, i32 0, i32 3
  %86 = load i32, ptr %10, align 4
  %87 = zext i32 %86 to i64
  %88 = getelementptr inbounds nuw [0 x %struct.dsm_control_item], ptr %85, i64 0, i64 %87
  %89 = getelementptr inbounds nuw %struct.dsm_control_item, ptr %88, i32 0, i32 1
  %90 = load i32, ptr %89, align 4
  %91 = add i32 %90, -1
  store i32 %91, ptr %89, align 4
  store i32 %91, ptr %9, align 4
  %92 = load ptr, ptr %2, align 8
  %93 = getelementptr inbounds nuw %struct.dsm_segment, ptr %92, i32 0, i32 3
  store i32 -1, ptr %93, align 4
  %94 = load ptr, ptr @MainLWLockArray, align 8
  %95 = getelementptr inbounds %union.LWLockPadded, ptr %94, i64 34
  call void @LWLockRelease(ptr noundef %95)
  %96 = load i32, ptr %9, align 4
  %97 = icmp eq i32 %96, 1
  br i1 %97, label %98, label %148

98:                                               ; preds = %77
  %99 = load ptr, ptr %2, align 8
  %100 = getelementptr inbounds nuw %struct.dsm_segment, ptr %99, i32 0, i32 2
  %101 = load i32, ptr %100, align 8
  %102 = call zeroext i1 @is_main_region_dsm_handle(i32 noundef %101)
  br i1 %102, label %114, label %103

103:                                              ; preds = %98
  %104 = load ptr, ptr %2, align 8
  %105 = getelementptr inbounds nuw %struct.dsm_segment, ptr %104, i32 0, i32 2
  %106 = load i32, ptr %105, align 8
  %107 = load ptr, ptr %2, align 8
  %108 = getelementptr inbounds nuw %struct.dsm_segment, ptr %107, i32 0, i32 4
  %109 = load ptr, ptr %2, align 8
  %110 = getelementptr inbounds nuw %struct.dsm_segment, ptr %109, i32 0, i32 5
  %111 = load ptr, ptr %2, align 8
  %112 = getelementptr inbounds nuw %struct.dsm_segment, ptr %111, i32 0, i32 6
  %113 = call zeroext i1 @dsm_impl_op(i32 noundef 3, i32 noundef %106, i64 noundef 0, ptr noundef %108, ptr noundef %110, ptr noundef %112, i32 noundef 19)
  br i1 %113, label %114, label %147

114:                                              ; preds = %103, %98
  %115 = load ptr, ptr @MainLWLockArray, align 8
  %116 = getelementptr inbounds %union.LWLockPadded, ptr %115, i64 34
  %117 = call zeroext i1 @LWLockAcquire(ptr noundef %116, i32 noundef 0)
  %118 = load ptr, ptr %2, align 8
  %119 = getelementptr inbounds nuw %struct.dsm_segment, ptr %118, i32 0, i32 2
  %120 = load i32, ptr %119, align 8
  %121 = call zeroext i1 @is_main_region_dsm_handle(i32 noundef %120)
  br i1 %121, label %122, label %138

122:                                              ; preds = %114
  %123 = load ptr, ptr @dsm_main_space_begin, align 8
  %124 = load ptr, ptr @dsm_control, align 8
  %125 = getelementptr inbounds nuw %struct.dsm_control_header, ptr %124, i32 0, i32 3
  %126 = load i32, ptr %10, align 4
  %127 = zext i32 %126 to i64
  %128 = getelementptr inbounds nuw [0 x %struct.dsm_control_item], ptr %125, i64 0, i64 %127
  %129 = getelementptr inbounds nuw %struct.dsm_control_item, ptr %128, i32 0, i32 2
  %130 = load i64, ptr %129, align 8
  %131 = load ptr, ptr @dsm_control, align 8
  %132 = getelementptr inbounds nuw %struct.dsm_control_header, ptr %131, i32 0, i32 3
  %133 = load i32, ptr %10, align 4
  %134 = zext i32 %133 to i64
  %135 = getelementptr inbounds nuw [0 x %struct.dsm_control_item], ptr %132, i64 0, i64 %134
  %136 = getelementptr inbounds nuw %struct.dsm_control_item, ptr %135, i32 0, i32 3
  %137 = load i64, ptr %136, align 8
  call void @FreePageManagerPut(ptr noundef %123, i64 noundef %130, i64 noundef %137)
  br label %138

138:                                              ; preds = %122, %114
  %139 = load ptr, ptr @dsm_control, align 8
  %140 = getelementptr inbounds nuw %struct.dsm_control_header, ptr %139, i32 0, i32 3
  %141 = load i32, ptr %10, align 4
  %142 = zext i32 %141 to i64
  %143 = getelementptr inbounds nuw [0 x %struct.dsm_control_item], ptr %140, i64 0, i64 %142
  %144 = getelementptr inbounds nuw %struct.dsm_control_item, ptr %143, i32 0, i32 1
  store i32 0, ptr %144, align 4
  %145 = load ptr, ptr @MainLWLockArray, align 8
  %146 = getelementptr inbounds %union.LWLockPadded, ptr %145, i64 34
  call void @LWLockRelease(ptr noundef %146)
  br label %147

147:                                              ; preds = %138, %103
  br label %148

148:                                              ; preds = %147, %77
  call void @llvm.lifetime.end.p0(i64 4, ptr %10) #8
  call void @llvm.lifetime.end.p0(i64 4, ptr %9) #8
  br label %149

149:                                              ; preds = %148, %72
  %150 = load ptr, ptr %2, align 8
  %151 = getelementptr inbounds nuw %struct.dsm_segment, ptr %150, i32 0, i32 1
  %152 = load ptr, ptr %151, align 8
  %153 = icmp ne ptr %152, null
  br i1 %153, label %154, label %159

154:                                              ; preds = %149
  %155 = load ptr, ptr %2, align 8
  %156 = getelementptr inbounds nuw %struct.dsm_segment, ptr %155, i32 0, i32 1
  %157 = load ptr, ptr %156, align 8
  %158 = load ptr, ptr %2, align 8
  call void @ResourceOwnerForgetDSM(ptr noundef %157, ptr noundef %158)
  br label %159

159:                                              ; preds = %154, %149
  %160 = load ptr, ptr %2, align 8
  %161 = getelementptr inbounds nuw %struct.dsm_segment, ptr %160, i32 0, i32 0
  call void @dlist_delete(ptr noundef %161)
  %162 = load ptr, ptr %2, align 8
  call void @pfree(ptr noundef %162)
  ret void
}