; Function Attrs: nounwind uwtable
define dso_local void @dsm_detach(ptr noundef %0) local_unnamed_addr #0 {
  %2 = load volatile i32, ptr @InterruptHoldoffCount, align 4
  %3 = add i32 %2, 1
  store volatile i32 %3, ptr @InterruptHoldoffCount, align 4
  %4 = getelementptr inbounds nuw i8, ptr %0, i64 56
  %.val43 = load ptr, ptr %4, align 8
  %5 = icmp eq ptr %.val43, null
  br i1 %5, label %._crit_edge, label %.lr.ph

.lr.ph:                                           ; preds = %1, %.lr.ph
  %.val44 = phi ptr [ %.val, %.lr.ph ], [ %.val43, %1 ]
  %6 = load ptr, ptr %.val44, align 8
  store ptr %6, ptr %4, align 8
  %7 = getelementptr inbounds i8, ptr %.val44, i64 -16
  %8 = load ptr, ptr %7, align 8
  %9 = getelementptr inbounds i8, ptr %.val44, i64 -8
  %10 = load i64, ptr %9, align 8
  tail call void @pfree(ptr noundef nonnull %7) #12
  tail call void %8(ptr noundef nonnull %0, i64 noundef %10) #12
  %.val = load ptr, ptr %4, align 8
  %11 = icmp eq ptr %.val, null
  br i1 %11, label %._crit_edge, label %.lr.ph, !llvm.loop !13

._crit_edge:                                      ; preds = %.lr.ph, %1
  %12 = load volatile i32, ptr @InterruptHoldoffCount, align 4
  %13 = add i32 %12, -1
  store volatile i32 %13, ptr @InterruptHoldoffCount, align 4
  %14 = getelementptr inbounds nuw i8, ptr %0, i64 40
  %15 = load ptr, ptr %14, align 8
  %.not = icmp eq ptr %15, null
  br i1 %.not, label %26, label %16

16:                                               ; preds = %._crit_edge
  %17 = getelementptr inbounds nuw i8, ptr %0, i64 24
  %18 = load i32, ptr %17, align 8
  %19 = and i32 %18, 1
  %.not40 = icmp eq i32 %19, 0
  br i1 %.not40, label %20, label %24

20:                                               ; preds = %16
  %21 = getelementptr inbounds nuw i8, ptr %0, i64 32
  %22 = getelementptr inbounds nuw i8, ptr %0, i64 48
  %23 = tail call zeroext i1 @dsm_impl_op(i32 noundef 2, i32 noundef %18, i64 noundef 0, ptr noundef nonnull %21, ptr noundef nonnull %14, ptr noundef nonnull %22, i32 noundef 19) #12
  br label %24

24:                                               ; preds = %20, %16
  %25 = getelementptr inbounds nuw i8, ptr %0, i64 32
  tail call void @llvm.memset.p0.i64(ptr noundef nonnull align 8 dereferenceable(24) %25, i8 0, i64 24, i1 false)
  br label %26

26:                                               ; preds = %24, %._crit_edge
  %27 = getelementptr inbounds nuw i8, ptr %0, i64 28
  %28 = load i32, ptr %27, align 4
  %.not37 = icmp eq i32 %28, -1
  br i1 %.not37, label %71, label %29

29:                                               ; preds = %26
  %30 = load ptr, ptr @MainLWLockArray, align 8
  %31 = getelementptr inbounds nuw i8, ptr %30, i64 4352
  %32 = tail call zeroext i1 @LWLockAcquire(ptr noundef nonnull %31, i32 noundef 0) #12
  %33 = load ptr, ptr @dsm_control, align 8
  %34 = zext i32 %28 to i64
  %.idx = mul nuw nsw i64 %34, 40
  %35 = getelementptr i8, ptr %33, i64 20
  %36 = getelementptr i8, ptr %35, i64 %.idx
  %37 = load i32, ptr %36, align 4
  %38 = add i32 %37, -1
  store i32 %38, ptr %36, align 4
  store i32 -1, ptr %27, align 4
  %39 = load ptr, ptr @MainLWLockArray, align 8
  %40 = getelementptr inbounds nuw i8, ptr %39, i64 4352
  tail call void @LWLockRelease(ptr noundef nonnull %40) #12
  %41 = icmp eq i32 %38, 1
  br i1 %41, label %42, label %71

42:                                               ; preds = %29
  %43 = getelementptr inbounds nuw i8, ptr %0, i64 24
  %44 = load i32, ptr %43, align 8
  %45 = and i32 %44, 1
  %.not41 = icmp eq i32 %45, 0
  br i1 %.not41, label %46, label %50

46:                                               ; preds = %42
  %47 = getelementptr inbounds nuw i8, ptr %0, i64 32
  %48 = getelementptr inbounds nuw i8, ptr %0, i64 48
  %49 = tail call zeroext i1 @dsm_impl_op(i32 noundef 3, i32 noundef %44, i64 noundef 0, ptr noundef nonnull %47, ptr noundef nonnull %14, ptr noundef nonnull %48, i32 noundef 19) #12
  br i1 %49, label %50, label %71

50:                                               ; preds = %46, %42
  %51 = load ptr, ptr @MainLWLockArray, align 8
  %52 = getelementptr inbounds nuw i8, ptr %51, i64 4352
  %53 = tail call zeroext i1 @LWLockAcquire(ptr noundef nonnull %52, i32 noundef 0) #12
  %54 = load i32, ptr %43, align 8
  %55 = and i32 %54, 1
  %.not42 = icmp eq i32 %55, 0
  br i1 %.not42, label %65, label %56

56:                                               ; preds = %50
  %57 = load ptr, ptr @dsm_main_space_begin, align 8
  %58 = load ptr, ptr @dsm_control, align 8
  %59 = getelementptr inbounds nuw i8, ptr %58, i64 16
  %60 = getelementptr inbounds nuw [0 x %struct.dsm_control_item], ptr %59, i64 0, i64 %34
  %61 = getelementptr inbounds nuw i8, ptr %60, i64 8
  %62 = load i64, ptr %61, align 8
  %63 = getelementptr inbounds nuw i8, ptr %60, i64 16
  %64 = load i64, ptr %63, align 8
  tail call void @FreePageManagerPut(ptr noundef %57, i64 noundef %62, i64 noundef %64) #12
  br label %65

65:                                               ; preds = %56, %50
  %66 = load ptr, ptr @dsm_control, align 8
  %67 = getelementptr i8, ptr %66, i64 20
  %68 = getelementptr i8, ptr %67, i64 %.idx
  store i32 0, ptr %68, align 4
  %69 = load ptr, ptr @MainLWLockArray, align 8
  %70 = getelementptr inbounds nuw i8, ptr %69, i64 4352
  tail call void @LWLockRelease(ptr noundef nonnull %70) #12
  br label %71

71:                                               ; preds = %29, %65, %46, %26
  %72 = getelementptr inbounds nuw i8, ptr %0, i64 16
  %73 = load ptr, ptr %72, align 8
  %.not39 = icmp eq ptr %73, null
  br i1 %.not39, label %76, label %74

74:                                               ; preds = %71
  %75 = ptrtoint ptr %0 to i64
  tail call void @ResourceOwnerForget(ptr noundef nonnull %73, i64 noundef %75, ptr noundef nonnull @dsm_resowner_desc) #12
  br label %76

76:                                               ; preds = %74, %71
  %77 = getelementptr inbounds nuw i8, ptr %0, i64 8
  %78 = load ptr, ptr %77, align 8
  %79 = load ptr, ptr %0, align 8
  %80 = getelementptr inbounds nuw i8, ptr %79, i64 8
  store ptr %78, ptr %80, align 8
  %81 = load ptr, ptr %0, align 8
  store ptr %81, ptr %78, align 8
  tail call void @pfree(ptr noundef nonnull %0) #12
  ret void
}